; Function Attrs: mustprogress uwtable
define void @_ZN10MainWindow46updateRenderingDataAccordingToActionCommonCodeEiP17MLRenderingAction(ptr noundef nonnull align 8 dereferenceable(1376) %0, i32 noundef %1, ptr noundef %2) local_unnamed_addr #9 align 2 personality ptr @__gxx_personality_v0 {
  %4 = alloca %class.MLRenderingData, align 8
  %5 = alloca %class.MLRenderingData, align 8
  %6 = alloca %class.MLDefaultMeshDecorators, align 8
  %7 = getelementptr inbounds i8, ptr %0, i64 1368
  %8 = load ptr, ptr %7, align 8
  %.not.i = icmp ne ptr %8, null
  %9 = icmp ne ptr %2, null
  %or.cond.not20 = and i1 %9, %.not.i
  %10 = icmp ne i32 %1, -1
  %or.cond3 = and i1 %10, %or.cond.not20
  br i1 %or.cond3, label %11, label %_ZN15MLRenderingDataD2Ev.exit31

11:                                               ; preds = %3
  call void @_ZN15MLRenderingDataC1Ev(ptr noundef nonnull align 8 dereferenceable(40) %4)
  %12 = load ptr, ptr %7, align 8
  %.not.i22 = icmp eq ptr %12, null
  br i1 %.not.i22, label %_ZNK10MainWindow16getRenderingDataEiR15MLRenderingData.exit, label %13

13:                                               ; preds = %11
  %14 = getelementptr inbounds i8, ptr %12, i64 240
  %15 = load ptr, ptr %14, align 8
  %.not9.i = icmp eq ptr %15, null
  br i1 %.not9.i, label %_ZNK10MainWindow16getRenderingDataEiR15MLRenderingData.exit, label %_ZNK10MainWindow3GLAEv.exit.i

_ZNK10MainWindow3GLAEv.exit.i:                    ; preds = %13
  %16 = getelementptr inbounds i8, ptr %12, i64 256
  %17 = load ptr, ptr %16, align 8
  %.not10.i = icmp eq ptr %17, null
  br i1 %.not10.i, label %_ZNK10MainWindow16getRenderingDataEiR15MLRenderingData.exit, label %_ZNK10MainWindow3GLAEv.exit13.i

_ZNK10MainWindow3GLAEv.exit13.i:                  ; preds = %_ZNK10MainWindow3GLAEv.exit.i
  %18 = invoke noundef ptr @_ZNK9QGLWidget7contextEv(ptr noundef nonnull align 8 dereferenceable(48) %17)
          to label %.noexc unwind label %29

.noexc:                                           ; preds = %_ZNK10MainWindow3GLAEv.exit13.i
  invoke void @_ZN26MLSceneGLSharedDataContext24getRenderInfoPerMeshViewEiP10QGLContextR15MLRenderingData(ptr noundef nonnull align 8 dereferenceable(168) %15, i32 noundef %1, ptr noundef %18, ptr noundef nonnull align 8 dereferenceable(40) %4)
          to label %_ZNK10MainWindow16getRenderingDataEiR15MLRenderingData.exit unwind label %29

_ZNK10MainWindow16getRenderingDataEiR15MLRenderingData.exit: ; preds = %_ZNK10MainWindow3GLAEv.exit.i, %13, %11, %.noexc
  invoke void @_ZN3vcg11PerViewDataI18MLPerViewGLOptionsEC2ERKS2_(ptr noundef nonnull align 8 dereferenceable(40) %5, ptr noundef nonnull align 8 dereferenceable(40) %4)
          to label %_ZN15MLRenderingDataC2ERKS_.exit unwind label %29

_ZN15MLRenderingDataC2ERKS_.exit:                 ; preds = %_ZNK10MainWindow16getRenderingDataEiR15MLRenderingData.exit
  %19 = load ptr, ptr %2, align 8
  %20 = getelementptr inbounds i8, ptr %19, i64 104
  %21 = load ptr, ptr %20, align 8
  invoke void %21(ptr noundef nonnull align 8 dereferenceable(16) %2, ptr noundef nonnull align 8 dereferenceable(40) %5)
          to label %22 unwind label %31

22:                                               ; preds = %_ZN15MLRenderingDataC2ERKS_.exit
  %23 = load ptr, ptr %7, align 8
  %.not.i25 = icmp eq ptr %23, null
  %24 = getelementptr inbounds i8, ptr %23, i64 48
  %spec.select.i26 = select i1 %.not.i25, ptr null, ptr %24
  %25 = invoke noundef ptr @_ZN12MeshDocument7getMeshEj(ptr noundef nonnull align 8 dereferenceable(192) %spec.select.i26, i32 noundef %1)
          to label %26 unwind label %31

26:                                               ; preds = %22
  %.not = icmp eq ptr %25, null
  br i1 %.not, label %33, label %27

27:                                               ; preds = %26
  invoke void @_ZN29MLPoliciesStandAloneFunctions19setBestWireModalityEP9MeshModelR15MLRenderingData(ptr noundef nonnull %25, ptr noundef nonnull align 8 dereferenceable(40) %5)
          to label %28 unwind label %31

28:                                               ; preds = %27
  invoke void @_ZN29MLPoliciesStandAloneFunctions57computeRequestedRenderingDataCompatibleWithMeshSameGLOptsEP9MeshModelRK15MLRenderingDataRS2_(ptr noundef nonnull %25, ptr noundef nonnull align 8 dereferenceable(40) %5, ptr noundef nonnull align 8 dereferenceable(40) %5)
          to label %33 unwind label %31

29:                                               ; preds = %_ZNK10MainWindow16getRenderingDataEiR15MLRenderingData.exit, %.noexc, %_ZNK10MainWindow3GLAEv.exit13.i
  %30 = landingpad { ptr, i32 }
          cleanup
  br label %69

31:                                               ; preds = %36, %35, %33, %28, %27, %22, %_ZN15MLRenderingDataC2ERKS_.exit
  %32 = landingpad { ptr, i32 }
          cleanup
  call void @_ZN15MLRenderingDataD2Ev(ptr noundef nonnull align 8 dereferenceable(40) %5) #26
  br label %69

33:                                               ; preds = %28, %26
  invoke void @_ZN10MainWindow16setRenderingDataEiRK15MLRenderingData(ptr noundef nonnull align 8 dereferenceable(1376) %0, i32 noundef %1, ptr noundef nonnull align 8 dereferenceable(40) %5)
          to label %34 unwind label %31

34:                                               ; preds = %33
  br i1 %.not, label %38, label %35

35:                                               ; preds = %34
  invoke void @_ZN23MLDefaultMeshDecoratorsC1EP10MainWindow(ptr noundef nonnull align 8 dereferenceable(8) %6, ptr noundef nonnull %0)
          to label %36 unwind label %31

36:                                               ; preds = %35
  %37 = invoke noundef zeroext i1 @_ZN23MLDefaultMeshDecorators24updateMeshDecorationDataER9MeshModelRK15MLRenderingDataS4_(ptr noundef nonnull align 8 dereferenceable(8) %6, ptr noundef nonnull align 8 dereferenceable(1288) %25, ptr noundef nonnull align 8 dereferenceable(40) %4, ptr noundef nonnull align 8 dereferenceable(40) %5)
          to label %38 unwind label %31

38:                                               ; preds = %36, %34
  %39 = getelementptr inbounds i8, ptr %5, i64 8
  %40 = load ptr, ptr %39, align 8
  %41 = getelementptr inbounds i8, ptr %5, i64 16
  %42 = load ptr, ptr %41, align 8
  %.not.i.i.i.i = icmp eq ptr %42, %40
  br i1 %.not.i.i.i.i, label %_ZNSt6vectorIN3vcg20GLMeshAttributesInfo16InternalRendAttsESaIS2_EE5clearEv.exit.i.i, label %43

43:                                               ; preds = %38
  store ptr %40, ptr %41, align 8
  br label %_ZNSt6vectorIN3vcg20GLMeshAttributesInfo16InternalRendAttsESaIS2_EE5clearEv.exit.i.i

_ZNSt6vectorIN3vcg20GLMeshAttributesInfo16InternalRendAttsESaIS2_EE5clearEv.exit.i.i: ; preds = %43, %38
  %44 = getelementptr inbounds i8, ptr %5, i64 32
  %45 = load ptr, ptr %44, align 8
  %46 = icmp eq ptr %45, null
  br i1 %46, label %51, label %47

47:                                               ; preds = %_ZNSt6vectorIN3vcg20GLMeshAttributesInfo16InternalRendAttsESaIS2_EE5clearEv.exit.i.i
  %48 = load ptr, ptr %45, align 8
  %49 = getelementptr inbounds i8, ptr %48, i64 8
  %50 = load ptr, ptr %49, align 8
  call void %50(ptr noundef nonnull align 8 dereferenceable(90) %45) #26
  %.pre.i.i = load ptr, ptr %39, align 8
  br label %51

51:                                               ; preds = %47, %_ZNSt6vectorIN3vcg20GLMeshAttributesInfo16InternalRendAttsESaIS2_EE5clearEv.exit.i.i
  %52 = phi ptr [ %.pre.i.i, %47 ], [ %40, %_ZNSt6vectorIN3vcg20GLMeshAttributesInfo16InternalRendAttsESaIS2_EE5clearEv.exit.i.i ]
  %.not.i.i.i.i.i = icmp eq ptr %52, null
  br i1 %.not.i.i.i.i.i, label %_ZN15MLRenderingDataD2Ev.exit, label %53

53:                                               ; preds = %51
  call void @_ZdlPv(ptr noundef nonnull %52) #25
  br label %_ZN15MLRenderingDataD2Ev.exit

_ZN15MLRenderingDataD2Ev.exit:                    ; preds = %51, %53
  %54 = getelementptr inbounds i8, ptr %4, i64 8
  %55 = load ptr, ptr %54, align 8
  %56 = getelementptr inbounds i8, ptr %4, i64 16
  %57 = load ptr, ptr %56, align 8
  %.not.i.i.i.i27 = icmp eq ptr %57, %55
  br i1 %.not.i.i.i.i27, label %_ZNSt6vectorIN3vcg20GLMeshAttributesInfo16InternalRendAttsESaIS2_EE5clearEv.exit.i.i28, label %58

58:                                               ; preds = %_ZN15MLRenderingDataD2Ev.exit
  store ptr %55, ptr %56, align 8
  br label %_ZNSt6vectorIN3vcg20GLMeshAttributesInfo16InternalRendAttsESaIS2_EE5clearEv.exit.i.i28

_ZNSt6vectorIN3vcg20GLMeshAttributesInfo16InternalRendAttsESaIS2_EE5clearEv.exit.i.i28: ; preds = %58, %_ZN15MLRenderingDataD2Ev.exit
  %59 = getelementptr inbounds i8, ptr %4, i64 32
  %60 = load ptr, ptr %59, align 8
  %61 = icmp eq ptr %60, null
  br i1 %61, label %66, label %62

62:                                               ; preds = %_ZNSt6vectorIN3vcg20GLMeshAttributesInfo16InternalRendAttsESaIS2_EE5clearEv.exit.i.i28
  %63 = load ptr, ptr %60, align 8
  %64 = getelementptr inbounds i8, ptr %63, i64 8
  %65 = load ptr, ptr %64, align 8
  call void %65(ptr noundef nonnull align 8 dereferenceable(90) %60) #26
  %.pre.i.i29 = load ptr, ptr %54, align 8
  br label %66

66:                                               ; preds = %62, %_ZNSt6vectorIN3vcg20GLMeshAttributesInfo16InternalRendAttsESaIS2_EE5clearEv.exit.i.i28
  %67 = phi ptr [ %.pre.i.i29, %62 ], [ %55, %_ZNSt6vectorIN3vcg20GLMeshAttributesInfo16InternalRendAttsESaIS2_EE5clearEv.exit.i.i28 ]
  %.not.i.i.i.i.i30 = icmp eq ptr %67, null
  br i1 %.not.i.i.i.i.i30, label %_ZN15MLRenderingDataD2Ev.exit31, label %68

68:                                               ; preds = %66
  call void @_ZdlPv(ptr noundef nonnull %67) #25
  br label %_ZN15MLRenderingDataD2Ev.exit31

69:                                               ; preds = %31, %29
  %.pn = phi { ptr, i32 } [ %32, %31 ], [ %30, %29 ]
  call void @_ZN15MLRenderingDataD2Ev(ptr noundef nonnull align 8 dereferenceable(40) %4) #26
  resume { ptr, i32 } %.pn

_ZN15MLRenderingDataD2Ev.exit31:                  ; preds = %68, %66, %3
  ret void
}